; ModuleID = 'source-C-CXX/24/1187.cpp'
source_filename = "source-C-CXX/24/1187.cpp"
target datalayout = "e-m:e-p270:32:32-p271:32:32-p272:64:64-i64:64-f80:128-n8:16:32:64-S128"
target triple = "x86_64-pc-linux-gnu"

%"class.std::ios_base::Init" = type { i8 }
%"class.std::basic_istream" = type { i32 (...)**, i64, %"class.std::basic_ios" }
%"class.std::basic_ios" = type { %"class.std::ios_base", %"class.std::basic_ostream"*, i8, i8, %"class.std::basic_streambuf"*, %"class.std::ctype"*, %"class.std::num_put"*, %"class.std::num_get"* }
%"class.std::ios_base" = type { i32 (...)**, i64, i64, i32, i32, i32, %"struct.std::ios_base::_Callback_list"*, %"struct.std::ios_base::_Words", [8 x %"struct.std::ios_base::_Words"], i32, %"struct.std::ios_base::_Words"*, %"class.std::locale" }
%"struct.std::ios_base::_Callback_list" = type { %"struct.std::ios_base::_Callback_list"*, void (i32, %"class.std::ios_base"*, i32)*, i32, i32 }
%"struct.std::ios_base::_Words" = type { i8*, i64 }
%"class.std::locale" = type { %"class.std::locale::_Impl"* }
%"class.std::locale::_Impl" = type { i32, %"class.std::locale::facet"**, i64, %"class.std::locale::facet"**, i8** }
%"class.std::locale::facet" = type <{ i32 (...)**, i32, [4 x i8] }>
%"class.std::basic_ostream" = type { i32 (...)**, %"class.std::basic_ios" }
%"class.std::basic_streambuf" = type { i32 (...)**, i8*, i8*, i8*, i8*, i8*, i8*, %"class.std::locale" }
%"class.std::ctype" = type <{ %"class.std::locale::facet.base", [4 x i8], %struct.__locale_struct*, i8, [7 x i8], i32*, i32*, i16*, i8, [256 x i8], [256 x i8], i8, [6 x i8] }>
%"class.std::locale::facet.base" = type <{ i32 (...)**, i32 }>
%struct.__locale_struct = type { [13 x %struct.__locale_data*], i16*, i32*, i32*, [13 x i8*] }
%struct.__locale_data = type opaque
%"class.std::num_put" = type { %"class.std::locale::facet.base", [4 x i8] }
%"class.std::num_get" = type { %"class.std::locale::facet.base", [4 x i8] }

@_ZStL8__ioinit = internal global %"class.std::ios_base::Init" zeroinitializer, align 1
@__dso_handle = external hidden global i8
@a = dso_local local_unnamed_addr global [100 x i32] zeroinitializer, align 16
@_ZSt3cin = external global %"class.std::basic_istream", align 8
@_ZSt4cout = external global %"class.std::basic_ostream", align 8
@llvm.global_ctors = appending global [1 x { i32, void ()*, i8* }] [{ i32, void ()*, i8* } { i32 65535, void ()* @_GLOBAL__sub_I_1187.cpp, i8* null }]

declare void @_ZNSt8ios_base4InitC1Ev(%"class.std::ios_base::Init"* nonnull align 1 dereferenceable(1)) unnamed_addr #0

; Function Attrs: nounwind
declare void @_ZNSt8ios_base4InitD1Ev(%"class.std::ios_base::Init"* nonnull align 1 dereferenceable(1)) unnamed_addr #1

; Function Attrs: nofree nounwind
declare i32 @__cxa_atexit(void (i8*)*, i8*, i8*) local_unnamed_addr #2

; Function Attrs: mustprogress nofree norecurse nosync nounwind sspstrong uwtable
define dso_local void @_Z1fv() local_unnamed_addr #3 {
  br label %1

1:                                                ; preds = %0, %1
  %2 = phi i64 [ 0, %0 ], [ %10, %1 ]
  %3 = phi i32 [ 0, %0 ], [ %8, %1 ]
  %4 = getelementptr inbounds [100 x i32], [100 x i32]* @a, i64 0, i64 %2
  %5 = load i32, i32* %4, align 4, !tbaa !5
  %6 = shl nsw i32 %5, 1
  %7 = add nsw i32 %6, %3
  %8 = sdiv i32 %7, 10
  %9 = srem i32 %7, 10
  store i32 %9, i32* %4, align 4, !tbaa !5
  %10 = add nuw nsw i64 %2, 1
  %11 = icmp eq i64 %10, 100
  br i1 %11, label %12, label %1, !llvm.loop !9

12:                                               ; preds = %1
  ret void
}

; Function Attrs: argmemonly mustprogress nofree nosync nounwind willreturn
declare void @llvm.lifetime.start.p0i8(i64 immarg, i8* nocapture) #4

; Function Attrs: argmemonly mustprogress nofree nosync nounwind willreturn
declare void @llvm.lifetime.end.p0i8(i64 immarg, i8* nocapture) #4

; Function Attrs: mustprogress norecurse sspstrong uwtable
define dso_local i32 @main() local_unnamed_addr #5 {
  %1 = alloca i32, align 4
  %2 = bitcast i32* %1 to i8*
  call void @llvm.lifetime.start.p0i8(i64 4, i8* nonnull %2) #9
  tail call void @llvm.memset.p0i8.i64(i8* noundef nonnull align 16 dereferenceable(400) bitcast ([100 x i32]* @a to i8*), i8 0, i64 400, i1 false)
  store i32 1, i32* getelementptr inbounds ([100 x i32], [100 x i32]* @a, i64 0, i64 0), align 16, !tbaa !5
  %3 = call nonnull align 8 dereferenceable(16) %"class.std::basic_istream"* @_ZNSirsERi(%"class.std::basic_istream"* nonnull align 8 dereferenceable(16) @_ZSt3cin, i32* nonnull align 4 dereferenceable(4) %1)
  %4 = load i32, i32* %1, align 4, !tbaa !5
  %5 = icmp sgt i32 %4, 0
  br i1 %5, label %6, label %22

6:                                                ; preds = %0, %19
  %7 = phi i32 [ %20, %19 ], [ 0, %0 ]
  br label %8

8:                                                ; preds = %6, %8
  %9 = phi i64 [ %17, %8 ], [ 0, %6 ]
  %10 = phi i32 [ %15, %8 ], [ 0, %6 ]
  %11 = getelementptr inbounds [100 x i32], [100 x i32]* @a, i64 0, i64 %9
  %12 = load i32, i32* %11, align 4, !tbaa !5
  %13 = shl nsw i32 %12, 1
  %14 = add nsw i32 %13, %10
  %15 = sdiv i32 %14, 10
  %16 = srem i32 %14, 10
  store i32 %16, i32* %11, align 4, !tbaa !5
  %17 = add nuw nsw i64 %9, 1
  %18 = icmp eq i64 %17, 100
  br i1 %18, label %19, label %8, !llvm.loop !9

19:                                               ; preds = %8
  %20 = add nuw nsw i32 %7, 1
  %21 = icmp eq i32 %20, %4
  br i1 %21, label %22, label %6, !llvm.loop !11

22:                                               ; preds = %19, %0
  br label %23

23:                                               ; preds = %22, %23
  %24 = phi i64 [ %28, %23 ], [ 99, %22 ]
  %25 = getelementptr inbounds [100 x i32], [100 x i32]* @a, i64 0, i64 %24
  %26 = load i32, i32* %25, align 4, !tbaa !5
  %27 = icmp eq i32 %26, 0
  %28 = add i64 %24, -1
  br i1 %27, label %23, label %29, !llvm.loop !12

29:                                               ; preds = %23
  %30 = trunc i64 %24 to i32
  %31 = icmp sgt i32 %30, -1
  br i1 %31, label %32, label %41

32:                                               ; preds = %29
  %33 = and i64 %24, 4294967295
  br label %34

34:                                               ; preds = %32, %34
  %35 = phi i64 [ %33, %32 ], [ %40, %34 ]
  %36 = getelementptr inbounds [100 x i32], [100 x i32]* @a, i64 0, i64 %35
  %37 = load i32, i32* %36, align 4, !tbaa !5
  %38 = call nonnull align 8 dereferenceable(8) %"class.std::basic_ostream"* @_ZNSolsEi(%"class.std::basic_ostream"* nonnull align 8 dereferenceable(8) @_ZSt4cout, i32 %37)
  %39 = icmp sgt i64 %35, 0
  %40 = add nsw i64 %35, -1
  br i1 %39, label %34, label %41, !llvm.loop !13

41:                                               ; preds = %34, %29
  %42 = load i8*, i8** bitcast (%"class.std::basic_ostream"* @_ZSt4cout to i8**), align 8, !tbaa !14
  %43 = getelementptr i8, i8* %42, i64 -24
  %44 = bitcast i8* %43 to i64*
  %45 = load i64, i64* %44, align 8
  %46 = add nsw i64 %45, 240
  %47 = getelementptr inbounds i8, i8* bitcast (%"class.std::basic_ostream"* @_ZSt4cout to i8*), i64 %46
  %48 = bitcast i8* %47 to %"class.std::ctype"**
  %49 = load %"class.std::ctype"*, %"class.std::ctype"** %48, align 8, !tbaa !16
  %50 = icmp eq %"class.std::ctype"* %49, null
  br i1 %50, label %51, label %52

51:                                               ; preds = %41
  call void @_ZSt16__throw_bad_castv() #10
  unreachable

52:                                               ; preds = %41
  %53 = getelementptr inbounds %"class.std::ctype", %"class.std::ctype"* %49, i64 0, i32 8
  %54 = load i8, i8* %53, align 8, !tbaa !20
  %55 = icmp eq i8 %54, 0
  br i1 %55, label %59, label %56

56:                                               ; preds = %52
  %57 = getelementptr inbounds %"class.std::ctype", %"class.std::ctype"* %49, i64 0, i32 9, i64 10
  %58 = load i8, i8* %57, align 1, !tbaa !22
  br label %65

59:                                               ; preds = %52
  call void @_ZNKSt5ctypeIcE13_M_widen_initEv(%"class.std::ctype"* nonnull align 8 dereferenceable(570) %49)
  %60 = bitcast %"class.std::ctype"* %49 to i8 (%"class.std::ctype"*, i8)***
  %61 = load i8 (%"class.std::ctype"*, i8)**, i8 (%"class.std::ctype"*, i8)*** %60, align 8, !tbaa !14
  %62 = getelementptr inbounds i8 (%"class.std::ctype"*, i8)*, i8 (%"class.std::ctype"*, i8)** %61, i64 6
  %63 = load i8 (%"class.std::ctype"*, i8)*, i8 (%"class.std::ctype"*, i8)** %62, align 8
  %64 = call signext i8 %63(%"class.std::ctype"* nonnull align 8 dereferenceable(570) %49, i8 signext 10)
  br label %65

65:                                               ; preds = %56, %59
  %66 = phi i8 [ %58, %56 ], [ %64, %59 ]
  %67 = call nonnull align 8 dereferenceable(8) %"class.std::basic_ostream"* @_ZNSo3putEc(%"class.std::basic_ostream"* nonnull align 8 dereferenceable(8) @_ZSt4cout, i8 signext %66)
  %68 = call nonnull align 8 dereferenceable(8) %"class.std::basic_ostream"* @_ZNSo5flushEv(%"class.std::basic_ostream"* nonnull align 8 dereferenceable(8) %67)
  call void @llvm.lifetime.end.p0i8(i64 4, i8* nonnull %2) #9
  ret i32 0
}

; Function Attrs: argmemonly mustprogress nofree nounwind willreturn writeonly
declare void @llvm.memset.p0i8.i64(i8* nocapture writeonly, i8, i64, i1 immarg) #6

declare nonnull align 8 dereferenceable(16) %"class.std::basic_istream"* @_ZNSirsERi(%"class.std::basic_istream"* nonnull align 8 dereferenceable(16), i32* nonnull align 4 dereferenceable(4)) local_unnamed_addr #0

declare nonnull align 8 dereferenceable(8) %"class.std::basic_ostream"* @_ZNSolsEi(%"class.std::basic_ostream"* nonnull align 8 dereferenceable(8), i32) local_unnamed_addr #0

declare nonnull align 8 dereferenceable(8) %"class.std::basic_ostream"* @_ZNSo3putEc(%"class.std::basic_ostream"* nonnull align 8 dereferenceable(8), i8 signext) local_unnamed_addr #0

declare nonnull align 8 dereferenceable(8) %"class.std::basic_ostream"* @_ZNSo5flushEv(%"class.std::basic_ostream"* nonnull align 8 dereferenceable(8)) local_unnamed_addr #0

; Function Attrs: noreturn
declare void @_ZSt16__throw_bad_castv() local_unnamed_addr #7

declare void @_ZNKSt5ctypeIcE13_M_widen_initEv(%"class.std::ctype"* nonnull align 8 dereferenceable(570)) local_unnamed_addr #0

; Function Attrs: sspstrong uwtable
define internal void @_GLOBAL__sub_I_1187.cpp() #8 section ".text.startup" {
  tail call void @_ZNSt8ios_base4InitC1Ev(%"class.std::ios_base::Init"* nonnull align 1 dereferenceable(1) @_ZStL8__ioinit)
  %1 = tail call i32 @__cxa_atexit(void (i8*)* bitcast (void (%"class.std::ios_base::Init"*)* @_ZNSt8ios_base4InitD1Ev to void (i8*)*), i8* getelementptr inbounds (%"class.std::ios_base::Init", %"class.std::ios_base::Init"* @_ZStL8__ioinit, i64 0, i32 0), i8* nonnull @__dso_handle) #9
  ret void
}


!llvm.module.flags = !{!0, !1, !2, !3}
!llvm.ident = !{!4}

!0 = !{i32 1, !"wchar_size", i32 4}
!1 = !{i32 7, !"PIC Level", i32 2}
!2 = !{i32 7, !"PIE Level", i32 2}
!3 = !{i32 7, !"uwtable", i32 1}
!4 = !{!"clang version 13.0.0"}
!5 = !{!6, !6, i64 0}
!6 = !{!"int", !7, i64 0}
!7 = !{!"omnipotent char", !8, i64 0}
!8 = !{!"Simple C++ TBAA"}
!9 = distinct !{!9, !10}
!10 = !{!"llvm.loop.mustprogress"}
!11 = distinct !{!11, !10}
!12 = distinct !{!12, !10}
!13 = distinct !{!13, !10}
!14 = !{!15, !15, i64 0}
!15 = !{!"vtable pointer", !8, i64 0}
!16 = !{!17, !18, i64 240}
!17 = !{!"_ZTSSt9basic_iosIcSt11char_traitsIcEE", !18, i64 216, !7, i64 224, !19, i64 225, !18, i64 232, !18, i64 240, !18, i64 248, !18, i64 256}
!18 = !{!"any pointer", !7, i64 0}
!19 = !{!"bool", !7, i64 0}
!20 = !{!21, !7, i64 56}
!21 = !{!"_ZTSSt5ctypeIcE", !18, i64 16, !19, i64 24, !18, i64 32, !18, i64 40, !18, i64 48, !7, i64 56, !7, i64 57, !7, i64 313, !7, i64 569}
!22 = !{!7, !7, i64 0}
